target datalayout = "e-m:e-p270:32:32-p271:32:32-p272:64:64-i64:64-i128:128-f80:128-n8:16:32:64-S128"
target triple = "x86_64-pc-linux-gnu"

%"struct.std::atomic.10" = type { %"struct.std::__atomic_base.11" }
%"struct.std::__atomic_base.11" = type { i64 }
%"struct.std::atomic" = type { %"struct.std::__atomic_base" }
%"struct.std::__atomic_base" = type { i32 }
%"class.google::LogMessageFatal" = type { %"class.google::LogMessage" }
%"class.google::LogMessage" = type { ptr, ptr }
%"class.folly::Baton" = type { %"struct.std::atomic" }
%"class.std::mutex" = type { %"class.std::__mutex_base" }
%"class.std::__mutex_base" = type { %union.pthread_mutex_t }
%union.pthread_mutex_t = type { %struct.__pthread_mutex_s }
%struct.__pthread_mutex_s = type { i32, i32, i32, i32, i32, i16, i16, %struct.__pthread_internal_list }
%struct.__pthread_internal_list = type { ptr, ptr }
%"struct.std::atomic.12" = type { %"struct.std::__atomic_base.13" }
%"struct.std::__atomic_base.13" = type { i8 }
%"struct.folly::IOThreadPoolExecutor::IOThread" = type { %"struct.folly::ThreadPoolExecutor::Thread.base", %"struct.std::atomic.12", %"struct.std::atomic.10", ptr, %"class.std::mutex", [24 x i8] }
%"struct.folly::ThreadPoolExecutor::Thread.base" = type <{ %"class.folly::ThreadPoolExecutor::ThreadHandle", i64, %"class.std::thread", %"struct.std::atomic.12", [7 x i8], %"class.folly::AtomicStruct.29", %"class.folly::Baton" }>
%"class.folly::ThreadPoolExecutor::ThreadHandle" = type { ptr }
%"class.std::thread" = type { %"class.std::thread::id" }
%"class.std::thread::id" = type { i64 }
%"class.folly::AtomicStruct.29" = type { %"struct.std::atomic.10" }
%"struct.google::CheckOpString" = type { ptr }
%"class.std::allocator.59" = type { i8 }

@.str.2 = private unnamed_addr constant [130 x i8] c"generated/home/dtcxzyw/WorkSpace/Projects/compilers/llvm-opt-benchmark/bench/folly/folly/folly/executors/IOThreadPoolExecutor.cpp\00", align 1
@_ZTIN5folly18ThreadPoolExecutor12ThreadHandleE = linkonce_odr constant { ptr, ptr } { ptr getelementptr inbounds (ptr, ptr @_ZTVN10__cxxabiv117__class_type_infoE, i64 2), ptr @_ZTSN5folly18ThreadPoolExecutor12ThreadHandleE }, comdat, align 8
@_ZTIN5folly20IOThreadPoolExecutor8IOThreadE = linkonce_odr constant { ptr, ptr, ptr } { ptr getelementptr inbounds (ptr, ptr @_ZTVN10__cxxabiv120__si_class_type_infoE, i64 2), ptr @_ZTSN5folly20IOThreadPoolExecutor8IOThreadE, ptr @_ZTIN5folly18ThreadPoolExecutor6ThreadE }, comdat, align 8
@.str.22 = private unnamed_addr constant [46 x i8] c"'dynamic_cast<IOThread*>(h)' Must be non NULL\00", align 1
@_ZTIN5folly18ThreadPoolExecutor8ObserverE = linkonce_odr constant { ptr, ptr } { ptr getelementptr inbounds (ptr, ptr @_ZTVN10__cxxabiv117__class_type_infoE, i64 2), ptr @_ZTSN5folly18ThreadPoolExecutor8ObserverE }, comdat, align 8

; Function Attrs: mustprogress nounwind uwtable
define linkonce_odr void @_ZNSt15__new_allocatorIcEC2Ev(ptr noundef nonnull align 1 dereferenceable(1) %0) unnamed_addr #0 comdat align 2 {
  %2 = alloca ptr, align 8
  store ptr %0, ptr %2, align 8, !tbaa !376
  ret void
}

; Function Attrs: mustprogress nounwind uwtable
define linkonce_odr void @_ZNSt15__new_allocatorIcED2Ev(ptr noundef nonnull align 1 dereferenceable(1) %0) unnamed_addr #0 comdat align 2 {
  %2 = alloca ptr, align 8
  store ptr %0, ptr %2, align 8, !tbaa !376
  ret void
}

; Function Attrs: mustprogress nounwind uwtable
define linkonce_odr void @_ZN6google13CheckOpStringC2EPNSt7__cxx1112basic_stringIcSt11char_traitsIcESaIcEEE(ptr noundef nonnull align 8 dereferenceable(8) %0, ptr noundef %1) unnamed_addr #0 comdat align 2 {
  %3 = alloca ptr, align 8
  %4 = alloca ptr, align 8
  store ptr %0, ptr %3, align 8, !tbaa !544
  store ptr %1, ptr %4, align 8, !tbaa !365
  %5 = load ptr, ptr %3, align 8
  %6 = getelementptr inbounds nuw %"struct.google::CheckOpString", ptr %5, i32 0, i32 0
  %7 = load ptr, ptr %4, align 8, !tbaa !365
  store ptr %7, ptr %6, align 8, !tbaa !546
  ret void
}

; Function Attrs: mustprogress nounwind uwtable
define available_externally void @_ZNSaIcEC2Ev(ptr noundef nonnull align 1 dereferenceable(1) %0) unnamed_addr #0 align 2 {
  %2 = alloca ptr, align 8
  store ptr %0, ptr %2, align 8, !tbaa !372
  %3 = load ptr, ptr %2, align 8
  call void @_ZNSt15__new_allocatorIcEC2Ev(ptr noundef nonnull align 1 dereferenceable(1) %3) #25
  ret void
}

; Function Attrs: mustprogress uwtable
define linkonce_odr noundef ptr @_ZN6google12CheckNotNullIPN5folly20IOThreadPoolExecutor8IOThreadEEET_PKciS7_OS5_(ptr noundef %0, i32 noundef %1, ptr noundef %2, ptr noundef nonnull align 8 dereferenceable(8) %3) #2 comdat personality ptr @__gxx_personality_v0 {
  %5 = alloca ptr, align 8
  %6 = alloca i32, align 4
  %7 = alloca ptr, align 8
  %8 = alloca ptr, align 8
  %9 = alloca %"class.google::LogMessageFatal", align 8
  %10 = alloca %"struct.google::CheckOpString", align 8
  %11 = alloca %"class.std::allocator.59", align 1
  %12 = alloca ptr, align 8
  %13 = alloca i32, align 4
  %14 = alloca i1, align 1
  store ptr %0, ptr %5, align 8, !tbaa !348
  store i32 %1, ptr %6, align 4, !tbaa !35
  store ptr %2, ptr %7, align 8, !tbaa !348
  store ptr %3, ptr %8, align 8, !tbaa !810
  %15 = load ptr, ptr %8, align 8, !tbaa !810
  %16 = load ptr, ptr %15, align 8, !tbaa !156
  %17 = icmp eq ptr %16, null
  br i1 %17, label %18, label %33

18:                                               ; preds = %4
  %19 = load ptr, ptr %5, align 8, !tbaa !348
  %20 = load i32, ptr %6, align 4, !tbaa !35
  call void @llvm.lifetime.start.p0(i64 8, ptr %10) #25
  %21 = call noalias noundef nonnull ptr @_Znwm(i64 noundef 32) #37
  store i1 true, ptr %14, align 1
  %22 = load ptr, ptr %7, align 8, !tbaa !348
  call void @llvm.lifetime.start.p0(i64 1, ptr %11) #25
  call void @_ZNSaIcEC2Ev(ptr noundef nonnull align 1 dereferenceable(1) %11) #25
  invoke void @_ZNSt7__cxx1112basic_stringIcSt11char_traitsIcESaIcEEC2IS3_EEPKcRKS3_(ptr noundef nonnull align 8 dereferenceable(32) %21, ptr noundef %22, ptr noundef nonnull align 1 dereferenceable(1) %11)
          to label %23 unwind label %26

23:                                               ; preds = %18
  store i1 false, ptr %14, align 1
  invoke void @_ZN6google13CheckOpStringC2EPNSt7__cxx1112basic_stringIcSt11char_traitsIcESaIcEEE(ptr noundef nonnull align 8 dereferenceable(8) %10, ptr noundef %21)
          to label %24 unwind label %26

24:                                               ; preds = %23
  invoke void @_ZN6google15LogMessageFatalC1EPKciRKNS_13CheckOpStringE(ptr noundef nonnull align 8 dereferenceable(16) %9, ptr noundef %19, i32 noundef %20, ptr noundef nonnull align 8 dereferenceable(8) %10)
          to label %25 unwind label %26

25:                                               ; preds = %24
  call void @_ZN6google15LogMessageFatalD1Ev(ptr noundef nonnull align 8 dereferenceable(16) %9) #34
  unreachable

26:                                               ; preds = %24, %23, %18
  %27 = landingpad { ptr, i32 }
          cleanup
  %28 = extractvalue { ptr, i32 } %27, 0
  store ptr %28, ptr %12, align 8
  %29 = extractvalue { ptr, i32 } %27, 1
  store i32 %29, ptr %13, align 4
  call void @_ZNSt15__new_allocatorIcED2Ev(ptr noundef nonnull align 1 dereferenceable(1) %11) #25
  call void @llvm.lifetime.end.p0(i64 1, ptr %11) #25
  %30 = load i1, ptr %14, align 1
  br i1 %30, label %31, label %32

31:                                               ; preds = %26
  call void @_ZdlPvm(ptr noundef %21, i64 noundef 32) #35
  br label %32

32:                                               ; preds = %31, %26
  call void @llvm.lifetime.end.p0(i64 8, ptr %10) #25
  br label %36

33:                                               ; preds = %4
  %34 = load ptr, ptr %8, align 8, !tbaa !810
  %35 = load ptr, ptr %34, align 8, !tbaa !156
  ret ptr %35

36:                                               ; preds = %32
  %37 = load ptr, ptr %12, align 8
  %38 = load i32, ptr %13, align 4
  %39 = insertvalue { ptr, i32 } poison, ptr %37, 0
  %40 = insertvalue { ptr, i32 } %39, i32 %38, 1
  resume { ptr, i32 } %40
}

; Function Attrs: mustprogress uwtable
define void @_ZN5folly20IOThreadPoolExecutor28handleObserverRegisterThreadEPNS_18ThreadPoolExecutor12ThreadHandleERNS1_8ObserverE(ptr noundef nonnull align 64 dereferenceable(568) %0, ptr noundef %1, ptr noundef nonnull align 8 dereferenceable(8) %2) unnamed_addr #2 align 2 {
  %4 = alloca ptr, align 8
  %5 = alloca ptr, align 8
  %6 = alloca ptr, align 8
  %7 = alloca ptr, align 8
  %8 = alloca ptr, align 8
  %9 = alloca ptr, align 8
  store ptr %0, ptr %4, align 8, !tbaa !31
  store ptr %1, ptr %5, align 8, !tbaa !23
  store ptr %2, ptr %6, align 8, !tbaa !25
  call void @llvm.lifetime.start.p0(i64 8, ptr %7) #25
  call void @llvm.lifetime.start.p0(i64 8, ptr %8) #25
  %10 = load ptr, ptr %5, align 8, !tbaa !23
  %11 = icmp eq ptr %10, null
  br i1 %11, label %14, label %12

12:                                               ; preds = %3
  %13 = call ptr @__dynamic_cast(ptr %10, ptr @_ZTIN5folly18ThreadPoolExecutor12ThreadHandleE, ptr @_ZTIN5folly20IOThreadPoolExecutor8IOThreadE, i64 0) #25
  br label %15

14:                                               ; preds = %3
  br label %15

15:                                               ; preds = %14, %12
  %16 = phi ptr [ %13, %12 ], [ null, %14 ]
  store ptr %16, ptr %8, align 8, !tbaa !156
  %17 = call noundef ptr @_ZN6google12CheckNotNullIPN5folly20IOThreadPoolExecutor8IOThreadEEET_PKciS7_OS5_(ptr noundef @.str.2, i32 noundef 301, ptr noundef @.str.22, ptr noundef nonnull align 8 dereferenceable(8) %8)
  call void @llvm.lifetime.end.p0(i64 8, ptr %8) #25
  store ptr %17, ptr %7, align 8, !tbaa !156
  call void @llvm.lifetime.start.p0(i64 8, ptr %9) #25
  %18 = load ptr, ptr %6, align 8, !tbaa !25
  %19 = icmp eq ptr %18, null
  br i1 %19, label %22, label %20

20:                                               ; preds = %15
  %21 = call ptr @__dynamic_cast(ptr %18, ptr @_ZTIN5folly18ThreadPoolExecutor8ObserverE, ptr @_ZTIN5folly24IOThreadPoolExecutorBase10IOObserverE, i64 0) #25
  br label %23

22:                                               ; preds = %15
  br label %23

23:                                               ; preds = %22, %20
  %24 = phi ptr [ %21, %20 ], [ null, %22 ]
  store ptr %24, ptr %9, align 8, !tbaa !157
  %25 = load ptr, ptr %9, align 8, !tbaa !157
  %26 = icmp ne ptr %25, null
  br i1 %26, label %27, label %35

27:                                               ; preds = %23
  %28 = load ptr, ptr %9, align 8, !tbaa !157
  %29 = load ptr, ptr %7, align 8, !tbaa !156
  %30 = getelementptr inbounds nuw %"struct.folly::IOThreadPoolExecutor::IOThread", ptr %29, i32 0, i32 3
  %31 = load ptr, ptr %30, align 8, !tbaa !59
  %32 = load ptr, ptr %28, align 8, !tbaa !29
  %33 = getelementptr inbounds ptr, ptr %32, i64 6
  %34 = load ptr, ptr %33, align 8
  call void %34(ptr noundef nonnull align 8 dereferenceable(8) %28, ptr noundef nonnull align 16 dereferenceable(632) %31)
  br label %35

35:                                               ; preds = %27, %23
  call void @llvm.lifetime.end.p0(i64 8, ptr %9) #25
  call void @llvm.lifetime.end.p0(i64 8, ptr %7) #25
  ret void
}